target datalayout = "e-m:e-p270:32:32-p271:32:32-p272:64:64-i64:64-i128:128-f80:128-n8:16:32:64-S128"
target triple = "x86_64-pc-linux-gnu"

%struct.fstReaderContext = type { ptr, ptr, i64, i64, i64, i64, i64, i32, i64, i64, ptr, ptr, ptr, i32, ptr, i8, i8, i8, [129 x i8], [120 x i8], i64, ptr, ptr, i64, i32, ptr, ptr, i64, i64, i8, ptr, i64, i64, ptr, i64, ptr, ptr, i64, i64, ptr, i32, i32, ptr, i32, i32, i32, i64, i8, %struct.fstHier, ptr, i32, ptr, i32, i8, [513 x i8], [513 x i8], ptr, i8, i32, i32, [65536 x i8], ptr, ptr }
%struct.fstHier = type { i8, %union.anon }
%union.anon = type { %"struct.fstHier::(anonymous union)::fstHierAttr" }
%"struct.fstHier::(anonymous union)::fstHierAttr" = type { i8, i8, ptr, i64, i64, i32 }

; Function Attrs: mustprogress nounwind uwtable
define void @fstReaderSetFacProcessMask(ptr noundef %0, i32 noundef %1) #8 {
  %3 = alloca ptr, align 8
  %4 = alloca i32, align 4
  %5 = alloca ptr, align 8
  %6 = alloca i32, align 4
  %7 = alloca i32, align 4
  store ptr %0, ptr %3, align 8, !tbaa !50
  store i32 %1, ptr %4, align 4, !tbaa !11
  call void @llvm.lifetime.start.p0(i64 8, ptr %5) #15
  %8 = load ptr, ptr %3, align 8, !tbaa !50
  store ptr %8, ptr %5, align 8, !tbaa !147
  %9 = load ptr, ptr %5, align 8, !tbaa !147
  %10 = icmp ne ptr %9, null
  br i1 %10, label %11, label %37

11:                                               ; preds = %2
  %12 = load i32, ptr %4, align 4, !tbaa !11
  %13 = add i32 %12, -1
  store i32 %13, ptr %4, align 4, !tbaa !11
  %14 = load i32, ptr %4, align 4, !tbaa !11
  %15 = load ptr, ptr %5, align 8, !tbaa !147
  %16 = getelementptr inbounds nuw %struct.fstReaderContext, ptr %15, i32 0, i32 7
  %17 = load i32, ptr %16, align 8, !tbaa !161
  %18 = icmp ult i32 %14, %17
  br i1 %18, label %19, label %36

19:                                               ; preds = %11
  call void @llvm.lifetime.start.p0(i64 4, ptr %6) #15
  %20 = load i32, ptr %4, align 4, !tbaa !11
  %21 = udiv i32 %20, 8
  store i32 %21, ptr %6, align 4, !tbaa !11
  call void @llvm.lifetime.start.p0(i64 4, ptr %7) #15
  %22 = load i32, ptr %4, align 4, !tbaa !11
  %23 = and i32 %22, 7
  store i32 %23, ptr %7, align 4, !tbaa !11
  %24 = load i32, ptr %7, align 4, !tbaa !11
  %25 = shl i32 1, %24
  %26 = load ptr, ptr %5, align 8, !tbaa !147
  %27 = getelementptr inbounds nuw %struct.fstReaderContext, ptr %26, i32 0, i32 12
  %28 = load ptr, ptr %27, align 8, !tbaa !162
  %29 = load i32, ptr %6, align 4, !tbaa !11
  %30 = sext i32 %29 to i64
  %31 = getelementptr inbounds i8, ptr %28, i64 %30
  %32 = load i8, ptr %31, align 1, !tbaa !34
  %33 = zext i8 %32 to i32
  %34 = or i32 %33, %25
  %35 = trunc i32 %34 to i8
  store i8 %35, ptr %31, align 1, !tbaa !34
  call void @llvm.lifetime.end.p0(i64 4, ptr %7) #15
  call void @llvm.lifetime.end.p0(i64 4, ptr %6) #15
  br label %36

36:                                               ; preds = %19, %11
  br label %37

37:                                               ; preds = %36, %2
  call void @llvm.lifetime.end.p0(i64 8, ptr %5) #15
  ret void
}