; Function Attrs: mustprogress nofree norecurse nosync nounwind willreturn memory(readwrite, inaccessiblemem: none) uwtable
define void @fstReaderSetFacProcessMask(ptr noundef readonly captures(address_is_null) %0, i32 noundef %1) local_unnamed_addr #26 {
  %.not = icmp eq ptr %0, null
  br i1 %.not, label %19, label %3

3:                                                ; preds = %2
  %4 = add i32 %1, -1
  %5 = getelementptr inbounds nuw i8, ptr %0, i64 56
  %6 = load i32, ptr %5, align 8, !tbaa !135
  %7 = icmp ult i32 %4, %6
  br i1 %7, label %8, label %19

8:                                                ; preds = %3
  %9 = lshr i32 %4, 3
  %10 = and i32 %4, 7
  %11 = shl nuw nsw i32 1, %10
  %12 = getelementptr inbounds nuw i8, ptr %0, i64 96
  %13 = load ptr, ptr %12, align 8, !tbaa !136
  %14 = zext nneg i32 %9 to i64
  %15 = getelementptr inbounds nuw i8, ptr %13, i64 %14
  %16 = load i8, ptr %15, align 1, !tbaa !6
  %17 = trunc nuw i32 %11 to i8
  %18 = or i8 %16, %17
  store i8 %18, ptr %15, align 1, !tbaa !6
  br label %19

19:                                               ; preds = %3, %8, %2
  ret void
}